; Function Attrs: mustprogress nounwind uwtable
define internal noundef nonnull ptr @_ZL25createAArch64DisassemblerRKN4llvm6TargetERKNS_15MCSubtargetInfoERNS_9MCContextE(ptr noundef nonnull readonly align 8 captures(none) dereferenceable(248) %0, ptr noundef nonnull align 8 dereferenceable(288) %1, ptr noundef nonnull align 1 %2) #0 {
  %4 = tail call noalias noundef nonnull dereferenceable(48) ptr @_Znwm(i64 noundef 48) #14
  %5 = getelementptr inbounds nuw i8, ptr %0, i64 64
  %6 = load ptr, ptr %5, align 8
  %.not.i = icmp eq ptr %6, null
  br i1 %.not.i, label %_ZNK4llvm6Target17createMCInstrInfoEv.exit, label %7

7:                                                ; preds = %3
  %8 = tail call noundef ptr %6() #13
  br label %_ZNK4llvm6Target17createMCInstrInfoEv.exit

_ZNK4llvm6Target17createMCInstrInfoEv.exit:       ; preds = %3, %7
  %.0.i = phi ptr [ %8, %7 ], [ null, %3 ]
  %9 = getelementptr inbounds nuw i8, ptr %4, i64 8
  store ptr %2, ptr %9, align 8
  %10 = getelementptr inbounds nuw i8, ptr %4, i64 16
  store ptr %1, ptr %10, align 8
  %11 = getelementptr inbounds nuw i8, ptr %4, i64 24
  tail call void @llvm.memset.p0.i64(ptr noundef nonnull align 8 dereferenceable(16) %11, i8 0, i64 16, i1 false)
  store ptr getelementptr inbounds nuw inrange(-16, 48) (i8, ptr @_ZTVN4llvm19AArch64DisassemblerE, i64 16), ptr %4, align 8
  %12 = getelementptr inbounds nuw i8, ptr %4, i64 40
  store ptr %.0.i, ptr %12, align 8
  ret ptr %4
}